00001  0000             
00002  0001             *=$1000
00003  1000  20 48 10   INIT       JSR DRAWROOM
00004  1003  A9 02                 LDA #$02                ;SET UP SPRITE MULTICOLOR
00005  1005  8D 25 D0              STA $D025
00006  1008  A9 05                 LDA #$05
00007  100A  8D 26 D0              STA $D026
00008  100D  20 20 11              JSR INITPLAYER
00009  1010  78                    SEI                     ;SET UP IRQ ROUTINE
00010  1011  A0 1F                 LDY #$7F/4
00011  1013  8C 0D DC              STY $DC0D
00012  1016  8C 0D DD              STY $DD0D
00013  1019  AD 0D DC              LDA $DC0D
00014  101C  AD 0D DD              LDA $DD0D
00015  101F  A9 01                 LDA #$01
00016  1021  8D 1A D0              STA $D01A
00017  1024  A9 3F                 LDA #<IRQ
00018  1026  A2 10                 LDX #>IRQ
00019  1028  8D 14 03              STA $0314
00020  102B  8E 15 03              STX $0315
00021  102E  A9 00                 LDA #$00
00022  1030  8D 12 D0              STA $D012
00023  1033  AD 11 D0              LDA $D011
00024  1036  29 7F                 AND #$7F
00025  1038  8D 11 D0              STA $D011
00026  103B  58                    CLI
00027  103C  4C 3C 10              JMP *
00028  103F             
00029  103F  CE 19 D0   IRQ        DEC $D019
00030  1042  20 3D 11              JSR UPDATEPLAYER
00031  1045  4C 81 EA              JMP $EA81
00032  1048             
00033  1048             DEFM       DRAWLINE                ;/1 = LINEOFFSET
00034  1048                        LDX #$00
00035  1048             @LOOP      LDA $4000+/1,X
00036  1048                        STA $0400+/1,X
00037  1048                        LDA $43E8+/1,X
00038  1048                        STA $D800+/1,X
00039  1048                        INX
00040  1048                        CLC
00041  1048                        CPX #$C8
00042  1048                        BNE @LOOP
00043  1048             
00044  1048             
00045  1048             
00046  1048             
00047  1048  A2 00      DRAWROOM   LDX #$00
00048  104A  BD 00 40   @LOOP      LDA $4000+0,X
00049  104D  9D 00 04              STA $0400+0,X
00050  1050  BD E8 43              LDA $43E8+0,X
00051  1053  9D 00 D8              STA $D800+0,X
00052  1056  E8                    INX
00053  1057  18                    CLC
00054  1058  E0 C8                 CPX #$C8
00055  105A  D0 EE                 BNE @LOOP
00056  105C             
00057  105C             
00058  105C  A2 00                 LDX #$00
00059  105E  BD C8 40   @LOOP      LDA $4000+200,X
00060  1061  9D C8 04              STA $0400+200,X
00061  1064  BD B0 44              LDA $43E8+200,X
00062  1067  9D C8 D8              STA $D800+200,X
00063  106A  E8                    INX
00064  106B  18                    CLC
00065  106C  E0 C8                 CPX #$C8
00066  106E  D0 EE                 BNE @LOOP
00067  1070             
00068  1070             
00069  1070  A2 00                 LDX #$00
00070  1072  BD 90 41   @LOOP      LDA $4000+400,X
00071  1075  9D 90 05              STA $0400+400,X
00072  1078  BD 78 45              LDA $43E8+400,X
00073  107B  9D 90 D9              STA $D800+400,X
00074  107E  E8                    INX
00075  107F  18                    CLC
00076  1080  E0 C8                 CPX #$C8
00077  1082  D0 EE                 BNE @LOOP
00078  1084             
00079  1084             
00080  1084  A2 00                 LDX #$00
00081  1086  BD 58 42   @LOOP      LDA $4000+600,X
00082  1089  9D 58 06              STA $0400+600,X
00083  108C  BD 40 46              LDA $43E8+600,X
00084  108F  9D 58 DA              STA $D800+600,X
00085  1092  E8                    INX
00086  1093  18                    CLC
00087  1094  E0 C8                 CPX #$C8
00088  1096  D0 EE                 BNE @LOOP
00089  1098             
00090  1098             
00091  1098  A2 00                 LDX #$00
00092  109A  BD 20 43   @LOOP      LDA $4000+800,X
00093  109D  9D 20 07              STA $0400+800,X
00094  10A0  BD 08 47              LDA $43E8+800,X
00095  10A3  9D 20 DB              STA $D800+800,X
00096  10A6  E8                    INX
00097  10A7  18                    CLC
00098  10A8  E0 C8                 CPX #$C8
00099  10AA  D0 EE                 BNE @LOOP
00100  10AC  60                    RTS
00101  10AD             JOYUP      =       #$01
00102  10AD             JOYDOWN    =       #$02
00103  10AD             JOYLEFT    =       #$04
00104  10AD             JOYRIGHT=  #$08
00105  10AD             JOYFIRE    =       #$10
00106  10AD             
00107  10AD             DEFM       CHECKJOY        ;/1 = JOY BUTTON, /2 = CHECK FAIL ROUTINE
00108  10AD                        LDA $DC00
00109  10AD                        AND #/1
00110  10AD                        CMP #/1
00111  10AD                        BEQ /2
00112  10AD             
00113  10AD             ZEROPTR    = $FB
00114  10AD  00 04 28   ROWTABLE   BYTE $0400,$0428,$0450,$0478,$04A0,$04C8,$04F0,$0518,$0540,$0568,$0590,$05B8,$05E0,$0608,$0630,$0658,$0680,$06A8,$06D0,$06F8,$0720,$0748,$0770,$0798,$0400
00115  10DF  00 00      COLLPOS    BYTE $00,$00
00116  10E1  00 00      CHECKPOS   BYTE $00,$00
00117  10E3             
00118  10E3  AD E2 10   COLLCHECK  LDA CHECKPOS+1
00119  10E6  69 01                 ADC #$01                        ;OFFSET SOME PIXELS
00120  10E8  4A                    LSR                             ;YPOS / 4 (ROWTABLE CONTAINS 16BIT POINTERS)
00121  10E9  4A                    LSR
00122  10EA  E9 07                 SBC #$07                        ;OFFSET FOR TOP BORDER
00123  10EC  29 FE                 AND #$FE                        ;AVOID UNEVEN NUMBERS
00124  10EE  8D E0 10              STA COLLPOS+1
00125  10F1  A8                    TAY
00126  10F2  B9 AD 10              LDA ROWTABLE,Y
00127  10F5  85 FB                 STA ZEROPTR
00128  10F7  B9 AE 10              LDA ROWTABLE+1,Y
00129  10FA  85 FC                 STA ZEROPTR+1
00130  10FC  AD E1 10              LDA CHECKPOS
00131  10FF  4A                    LSR                             ;XPOS / 8
00132  1100  4A                    LSR
00133  1101  4A                    LSR
00134  1102  E9 01                 SBC #$01                        ;CENTER OFFSET
00135  1104  8D DF 10              STA COLLPOS
00136  1107  A8                    TAY
00137  1108  AD 10 D0              LDA $D010
00138  110B  29 01                 AND #$01
00139  110D  C9 01                 CMP #$01                        ;IF UPPER BIT IS USED, ADD 31 TO CHARPTR
00140  110F  D0 05                 BNE @CHKOVERFLOW
00141  1111  98                    TYA
00142  1112  18                    CLC
00143  1113  69 1F                 ADC #$1F
00144  1115  A8                    TAY
00145  1116  98         @CHKOVERFLOW TYA
00146  1117  C9 28                 CMP #$28                        ;MAKE SURE THAT POSITION OVERFLOWS WITH X-POSITION
00147  1119  90 02                 BCC @STORECHAR
00148  111B  A0 27                 LDY #$27
00149  111D  B1 FB      @STORECHAR LDA (ZEROPTR),Y
00150  111F  60                    RTS
00151  1120  A9 80      INITPLAYER LDA #ANIMIDLE
00152  1122  8D F8 07              STA $07F8               ;SET SPRITE POINTER
00153  1125  A9 40                 LDA #$40
00154  1127  8D 00 D0              STA $D000               ;SET SPRITE X POS
00155  112A  A9 A0                 LDA #$A0
00156  112C  8D 01 D0              STA $D001               ;SET SPRITE Y POS
00157  112F  A9 01                 LDA #$01
00158  1131  8D 15 D0              STA $D015               ;ENABLE SPRITE 0
00159  1134  8D 1C D0              STA $D01C               ;SET MULTICOLOR SPRITE 0
00160  1137  A9 01                 LDA #$01
00161  1139  8D 27 D0              STA $D027               ;SET SPRITE COLOR
00162  113C  60                    RTS
00163  113D             
00164  113D  20 AF 11   UPDATEPLAYER JSR PLAYERMOVE
00165  1140  AE 7F 12              LDX JUMPPOS
00166  1143  E0 00                 CPX #$00
00167  1145  F0 38                 BEQ @END                ;JUMPPOS == 0 => NO JUMP
00168  1147  AD 00 D0              LDA $D000               ;CHECK IF TILE IS ABOVE PLAYER
00169  114A  8D E1 10              STA CHECKPOS
00170  114D  AD 01 D0              LDA $D001
00171  1150  E9 15                 SBC #21
00172  1152  8D E2 10              STA CHECKPOS+1
00173  1155  20 E3 10              JSR COLLCHECK
00174  1158  C9 E0                 CMP #$E0                ;IF SOLID TILE, STOP JUMP
00175  115A  D0 05                 BNE @CHECKJUMP          ;ELSE CONTINUE JUMP
00176  115C  A9 16                 LDA #SINETABLEHALF      ;MAKE JUMP FALL
00177  115E  8D 7F 12              STA JUMPPOS
00178  1161  AD 01 D0   @CHECKJUMP LDA $D001
00179  1164  AE 7F 12              LDX JUMPPOS
00180  1167  E0 16                 CPX #SINETABLEHALF
00181  1169  B0 06                 BCS @FALLING
00182  116B  FD 7F 12              SBC SINETABLE-1,X       ;JUMPING
00183  116E  4C 74 11              JMP @UPDATEY
00184  1171  7D 7F 12   @FALLING   ADC SINETABLE-1,X
00185  1174  8D 01 D0   @UPDATEY   STA $D001
00186  1177  E0 2D                 CPX #SINETABLELEN
00187  1179  F0 04                 BEQ @END
00188  117B  E8                    INX
00189  117C  8E 7F 12              STX JUMPPOS
00190  117F  20 37 12   @END       JSR PLAYERGRAVITY
00191  1182  20 86 11              JSR PLAYERANIM
00192  1185  60                    RTS
00193  1186             
00194  1186  AD 7D 12   PLAYERANIM LDA ANIMCOUNTER
00195  1189  C9 04                 CMP #ANIMSPEED
00196  118B  90 1E                 BCC @INCCOUNT
00197  118D  A9 00                 LDA #$00
00198  118F  8D 7D 12              STA ANIMCOUNTER
00199  1192  AE 7E 12              LDX ANIMFRAME
00200  1195  E8                    INX
00201  1196  E0 03                 CPX #ANIMLEN
00202  1198  D0 02                 BNE @UPDATEFRAME
00203  119A  A2 00                 LDX #$00
00204  119C  8E 7E 12   @UPDATEFRAME STX ANIMFRAME
00205  119F  8A                    TXA
00206  11A0  18                    CLC
00207  11A1  6D 7C 12              ADC ANIMOFFSET
00208  11A4  AA                    TAX
00209  11A5  BD 70 12              LDA ANIMATIONS,X
00210  11A8  8D F8 07              STA $07F8
00211  11AB  EE 7D 12   @INCCOUNT  INC ANIMCOUNTER
00212  11AE  60         @END       RTS
00213  11AF                        
00214  11AF             
00215  11AF  AD 10 D0   PLAYERMOVE LDA $D010
00216  11B2  29 01                 AND #$01
00217  11B4  C9 01                 CMP #$01
00218  11B6  F0 1C                 BEQ @ISUPPER
00219  11B8  AD 00 D0              LDA $D000
00220  11BB  C9 FF                 CMP #$FF
00221  11BD  D0 08                 BNE @CHECKLOW
00222  11BF  A9 00                 LDA #$00
00223  11C1  8D 00 D0              STA $D000
00224  11C4  4C ED 11              JMP @FLIPUPPER
00225  11C7  18         @CHECKLOW  CLC
00226  11C8  C9 00                 CMP #$00
00227  11CA  D0 29                 BNE @CHECKIDLE
00228  11CC  A9 56                 LDA #$56
00229  11CE  8D 00 D0              STA $D000
00230  11D1  4C ED 11              JMP @FLIPUPPER
00231  11D4  AD 00 D0   @ISUPPER   LDA $D000
00232  11D7  C9 57                 CMP #$57
00233  11D9  D0 08                 BNE @CHECKLOWER
00234  11DB  A9 00                 LDA #$00
00235  11DD  8D 00 D0              STA $D000
00236  11E0  4C ED 11              JMP @FLIPUPPER
00237  11E3  18         @CHECKLOWER CLC
00238  11E4  C9 00                 CMP #$00
00239  11E6  D0 0D                 BNE @CHECKIDLE
00240  11E8  A9 FF                 LDA #$FF
00241  11EA  8D 00 D0              STA $D000
00242  11ED  AD 10 D0   @FLIPUPPER LDA $D010
00243  11F0  49 01                 EOR #01
00244  11F2  8D 10 D0              STA $D010
00245  11F5  AD 7C 12   @CHECKIDLE LDA ANIMOFFSET
00246  11F8  C9 04                 CMP #$04
00247  11FA  90 05                 BCC @MOVERIGHT
00248  11FC  E9 06                 SBC #$06                        ;OFFSET FROM WALK TO IDLELEFT
00249  11FE  8D 7C 12              STA ANIMOFFSET
00250  1201             
00251  1201             
00252  1201  AD 00 DC   @MOVERIGHT LDA $DC00
00253  1204  29 08                 AND #JOYRIGHT
00254  1206  C9 08                 CMP #JOYRIGHT
00255  1208  F0 08                 BEQ @MOVELEFT
00256  120A  EE 00 D0              INC $D000
00257  120D  A9 06                 LDA #WALKRIGHT
00258  120F  8D 7C 12              STA ANIMOFFSET
00259  1212             
00260  1212             
00261  1212  AD 00 DC   @MOVELEFT  LDA $DC00
00262  1215  29 04                 AND #JOYLEFT
00263  1217  C9 04                 CMP #JOYLEFT
00264  1219  F0 08                 BEQ @MOVEUP
00265  121B  CE 00 D0              DEC $D000
00266  121E  A9 09                 LDA #WALKLEFT
00267  1220  8D 7C 12              STA ANIMOFFSET
00268  1223             
00269  1223             
00270  1223  AD 00 DC   @MOVEUP    LDA $DC00
00271  1226  29 01                 AND #JOYUP
00272  1228  C9 01                 CMP #JOYUP
00273  122A  F0 0A                 BEQ @END
00274  122C  AD 7F 12              LDA JUMPPOS
00275  122F  C9 00                 CMP #$00
00276  1231  D0 03                 BNE @END
00277  1233  EE 7F 12              INC JUMPPOS
00278  1236  60         @END       RTS
00279  1237             
00280  1237  AD 00 D0   PLAYERGRAVITY LDA $D000
00281  123A  8D E1 10              STA CHECKPOS
00282  123D  AD 01 D0              LDA $D001
00283  1240  8D E2 10              STA CHECKPOS+1
00284  1243  20 E3 10              JSR COLLCHECK
00285  1246  C9 80                 CMP #$80
00286  1248  90 19                 BCC @CHECKFALL
00287  124A  AD 7F 12   @ONGROUND  LDA JUMPPOS
00288  124D  C9 16                 CMP #SINETABLEHALF
00289  124F  90 1E                 BCC @END
00290  1251  AD E0 10              LDA COLLPOS+1                   ;GET ROW COLLISION
00291  1254  0A                    ASL
00292  1255  0A                    ASL
00293  1256  69 1D                 ADC #$1D
00294  1258  8D 01 D0              STA $D001                       ;MOVE SPRITE TO GROUND
00295  125B  A9 00                 LDA #$00
00296  125D  8D 7F 12              STA JUMPPOS
00297  1260  4C 6F 12              JMP @END
00298  1263  AD 7F 12   @CHECKFALL LDA JUMPPOS                     ;IF NOT ON GROUND AND JUMPPOS == 0, START FALLING
00299  1266  C9 00                 CMP #$00
00300  1268  D0 05                 BNE @END
00301  126A  A9 16                 LDA #SINETABLEHALF
00302  126C  8D 7F 12              STA JUMPPOS
00303  126F  60         @END       RTS
00304  1270             
00305  1270             ANIMIDLE   = $80
00306  1270             ANIMLEN    = $03
00307  1270             ANIMSPEED  = $04
00308  1270             IDLERIGHT  = $00
00309  1270             IDLELEFT   = $03
00310  1270             WALKRIGHT  = $06
00311  1270             WALKLEFT   = $09
00312  1270  80 80 80   ANIMATIONS BYTE $80,$80,$80                ;IDLE RIGHT     $00
00313  1273  81 81 81              BYTE $81,$81,$81                ;IDLE LEFT      $03
00314  1276  82 83 84              BYTE $82,$83,$84                ;WALK RIGHT     $06
00315  1279  85 86 87              BYTE $85,$86,$87                ;WALK LEFT      $09
00316  127C  06         ANIMOFFSET BYTE $06
00317  127D  00         ANIMCOUNTER BYTE $00
00318  127E  00         ANIMFRAME  BYTE $00
00319  127F             
00320  127F  17         JUMPPOS    BYTE $17
00321  1280             SINETABLELEN = 45
00322  1280             SINETABLEHALF= 22
00323  1280  03 02 02   SINETABLE  BYTE $03,$02,$02,$02,$02,$02,$02,$02,$02,$02,$02,$02,$02,$01,$01,$01,$01,$01,$00,$00,$00,$00,$00,$00,$00,$00,$00,$00,$01,$01,$01,$01,$01,$02,$02,$02,$02,$02,$02,$02,$02,$02,$02,$02,$02,$03
00324  12AE             *=$2000    
00325  2000             ; IDLE RIGHT
00326  2000  02 00 80              BYTE 2,0,128
00327  2003  00 82 00              BYTE 0,130,0
00328  2006  00 82 00              BYTE 0,130,0
00329  2009  00 82 00              BYTE 0,130,0
00330  200C  00 82 00              BYTE 0,130,0
00331  200F  00 3C 00              BYTE 0,60,0
00332  2012  00 FF 00              BYTE 0,255,0
00333  2015  0C F7 00              BYTE 12,247,0
00334  2018  0F F5 00              BYTE 15,245,0
00335  201B  03 FF 00              BYTE 3,255,0
00336  201E  00 F5 00              BYTE 0,245,0
00337  2021  00 FD 00              BYTE 0,253,0
00338  2024  00 00 00              BYTE 0,0,0
00339  2027  02 AA 15              BYTE 2,170,21
00340  202A  08 AA B0              BYTE 8,170,176
00341  202D  08 AA 10              BYTE 8,170,16
00342  2030  08 AA 00              BYTE 8,170,0
00343  2033  0C AA 00              BYTE 12,170,0
00344  2036  00 82 00              BYTE 0,130,0
00345  2039  00 82 00              BYTE 0,130,0
00346  203C  00 82 00              BYTE 0,130,0
00347  203F  00                    BYTE 0
00348  2040             
00349  2040             ; IDLE LEFT
00350  2040  02 00 80              BYTE 2,0,128
00351  2043  00 82 00              BYTE 0,130,0
00352  2046  00 82 00              BYTE 0,130,0
00353  2049  00 82 00              BYTE 0,130,0
00354  204C  00 82 00              BYTE 0,130,0
00355  204F  00 3C 00              BYTE 0,60,0
00356  2052  00 FF 00              BYTE 0,255,0
00357  2055  00 DF 30              BYTE 0,223,48
00358  2058  00 5F F0              BYTE 0,95,240
00359  205B  00 FF C0              BYTE 0,255,192
00360  205E  00 5F 00              BYTE 0,95,0
00361  2061  00 7F 00              BYTE 0,127,0
00362  2064  00 00 00              BYTE 0,0,0
00363  2067  54 AA 80              BYTE 84,170,128
00364  206A  0E AA 20              BYTE 14,170,32
00365  206D  04 AA 20              BYTE 4,170,32
00366  2070  00 AA 20              BYTE 0,170,32
00367  2073  00 AA 30              BYTE 0,170,48
00368  2076  00 82 00              BYTE 0,130,0
00369  2079  00 82 00              BYTE 0,130,0
00370  207C  00 82 00              BYTE 0,130,0
00371  207F  00                    BYTE 0
00372  2080             
00373  2080             ; WALK RIGHT 0
00374  2080  02 00 80              BYTE 2,0,128
00375  2083  00 82 00              BYTE 0,130,0
00376  2086  00 82 00              BYTE 0,130,0
00377  2089  00 82 00              BYTE 0,130,0
00378  208C  00 82 00              BYTE 0,130,0
00379  208F  00 3C 00              BYTE 0,60,0
00380  2092  00 FF 00              BYTE 0,255,0
00381  2095  0C F7 00              BYTE 12,247,0
00382  2098  0F F5 00              BYTE 15,245,0
00383  209B  03 FF 00              BYTE 3,255,0
00384  209E  00 F5 00              BYTE 0,245,0
00385  20A1  00 FD 00              BYTE 0,253,0
00386  20A4  00 00 00              BYTE 0,0,0
00387  20A7  02 AA 15              BYTE 2,170,21
00388  20AA  08 AA B0              BYTE 8,170,176
00389  20AD  08 AA 10              BYTE 8,170,16
00390  20B0  08 AA 00              BYTE 8,170,0
00391  20B3  0C AA 00              BYTE 12,170,0
00392  20B6  00 80 80              BYTE 0,128,128
00393  20B9  00 80 80              BYTE 0,128,128
00394  20BC  02 00 80              BYTE 2,0,128
00395  20BF  00                    BYTE 0
00396  20C0             
00397  20C0             ; WALK RIGHT 1
00398  20C0  00 00 00              BYTE 0,0,0
00399  20C3  02 00 80              BYTE 2,0,128
00400  20C6  00 82 00              BYTE 0,130,0
00401  20C9  00 82 00              BYTE 0,130,0
00402  20CC  00 82 00              BYTE 0,130,0
00403  20CF  00 3C 00              BYTE 0,60,0
00404  20D2  00 FF 00              BYTE 0,255,0
00405  20D5  0C F7 00              BYTE 12,247,0
00406  20D8  0F F5 00              BYTE 15,245,0
00407  20DB  03 FF 00              BYTE 3,255,0
00408  20DE  00 F5 00              BYTE 0,245,0
00409  20E1  00 FD 15              BYTE 0,253,21
00410  20E4  00 00 30              BYTE 0,0,48
00411  20E7  02 AA 90              BYTE 2,170,144
00412  20EA  08 AA 00              BYTE 8,170,0
00413  20ED  08 AA 00              BYTE 8,170,0
00414  20F0  0C AA 00              BYTE 12,170,0
00415  20F3  00 AA 00              BYTE 0,170,0
00416  20F6  00 80 80              BYTE 0,128,128
00417  20F9  02 00 20              BYTE 2,0,32
00418  20FC  08 00 20              BYTE 8,0,32
00419  20FF  00                    BYTE 0
00420  2100             
00421  2100             ; WALK RIGHT 2
00422  2100  00 00 00              BYTE 0,0,0
00423  2103  00 00 00              BYTE 0,0,0
00424  2106  0A 00 A0              BYTE 10,0,160
00425  2109  00 82 00              BYTE 0,130,0
00426  210C  00 82 00              BYTE 0,130,0
00427  210F  00 82 00              BYTE 0,130,0
00428  2112  00 3C 00              BYTE 0,60,0
00429  2115  00 FF 00              BYTE 0,255,0
00430  2118  0C F7 00              BYTE 12,247,0
00431  211B  0F F5 00              BYTE 15,245,0
00432  211E  03 FF 00              BYTE 3,255,0
00433  2121  00 F5 00              BYTE 0,245,0
00434  2124  00 FD 00              BYTE 0,253,0
00435  2127  02 AA 00              BYTE 2,170,0
00436  212A  08 AA 15              BYTE 8,170,21
00437  212D  08 AA B0              BYTE 8,170,176
00438  2130  0C AA 10              BYTE 12,170,16
00439  2133  00 AA 00              BYTE 0,170,0
00440  2136  00 82 00              BYTE 0,130,0
00441  2139  00 28 00              BYTE 0,40,0
00442  213C  00 88 00              BYTE 0,136,0
00443  213F  00                    BYTE 0
00444  2140             
00445  2140             ; WALK LEFT 0
00446  2140  02 00 80              BYTE 2,0,128
00447  2143  00 82 00              BYTE 0,130,0
00448  2146  00 82 00              BYTE 0,130,0
00449  2149  00 82 00              BYTE 0,130,0
00450  214C  00 82 00              BYTE 0,130,0
00451  214F  00 3C 00              BYTE 0,60,0
00452  2152  00 FF 00              BYTE 0,255,0
00453  2155  00 DF 30              BYTE 0,223,48
00454  2158  00 5F F0              BYTE 0,95,240
00455  215B  00 FF C0              BYTE 0,255,192
00456  215E  00 5F 00              BYTE 0,95,0
00457  2161  00 7F 00              BYTE 0,127,0
00458  2164  00 00 00              BYTE 0,0,0
00459  2167  54 AA 80              BYTE 84,170,128
00460  216A  0E AA 20              BYTE 14,170,32
00461  216D  04 AA 20              BYTE 4,170,32
00462  2170  00 AA 20              BYTE 0,170,32
00463  2173  00 AA 30              BYTE 0,170,48
00464  2176  02 02 00              BYTE 2,2,0
00465  2179  02 02 00              BYTE 2,2,0
00466  217C  02 00 80              BYTE 2,0,128
00467  217F  00                    BYTE 0
00468  2180             
00469  2180             ; WALK LEFT 1
00470  2180  00 00 00              BYTE 0,0,0
00471  2183  02 00 80              BYTE 2,0,128
00472  2186  00 82 00              BYTE 0,130,0
00473  2189  00 82 00              BYTE 0,130,0
00474  218C  00 82 00              BYTE 0,130,0
00475  218F  00 3C 00              BYTE 0,60,0
00476  2192  00 FF 00              BYTE 0,255,0
00477  2195  00 DF 30              BYTE 0,223,48
00478  2198  00 5F F0              BYTE 0,95,240
00479  219B  00 FF C0              BYTE 0,255,192
00480  219E  00 5F 00              BYTE 0,95,0
00481  21A1  54 7F 00              BYTE 84,127,0
00482  21A4  0C 00 00              BYTE 12,0,0
00483  21A7  06 AA 80              BYTE 6,170,128
00484  21AA  00 AA 20              BYTE 0,170,32
00485  21AD  00 AA 20              BYTE 0,170,32
00486  21B0  00 AA 30              BYTE 0,170,48
00487  21B3  00 AA 00              BYTE 0,170,0
00488  21B6  02 02 00              BYTE 2,2,0
00489  21B9  08 00 80              BYTE 8,0,128
00490  21BC  08 00 20              BYTE 8,0,32
00491  21BF  00                    BYTE 0
00492  21C0             
00493  21C0             ; WALK LEFT 2
00494  21C0  00 00 00              BYTE 0,0,0
00495  21C3  00 00 00              BYTE 0,0,0
00496  21C6  0A 00 A0              BYTE 10,0,160
00497  21C9  00 82 00              BYTE 0,130,0
00498  21CC  00 82 00              BYTE 0,130,0
00499  21CF  00 82 00              BYTE 0,130,0
00500  21D2  00 3C 00              BYTE 0,60,0
00501  21D5  00 FF 00              BYTE 0,255,0
00502  21D8  00 DF 30              BYTE 0,223,48
00503  21DB  00 5F F0              BYTE 0,95,240
00504  21DE  00 FF C0              BYTE 0,255,192
00505  21E1  00 5F 00              BYTE 0,95,0
00506  21E4  00 7F 00              BYTE 0,127,0
00507  21E7  00 AA 80              BYTE 0,170,128
00508  21EA  54 AA 20              BYTE 84,170,32
00509  21ED  0E AA 20              BYTE 14,170,32
00510  21F0  04 AA 30              BYTE 4,170,48
00511  21F3  00 AA 00              BYTE 0,170,0
00512  21F6  00 82 00              BYTE 0,130,0
00513  21F9  00 28 00              BYTE 0,40,0
00514  21FC  00 22 00              BYTE 0,34,0
00515  21FF  00                    BYTE 0
00516  2200             
00517  2200             
00518  2200             *=$4000
00519  4000  20 20 20              BYTE    $20,$20,$20,$20,$20,$20,$20,$20,$20,$20,$20,$20,$20,$20,$20,$20,$20,$20,$20,$20,$20,$20,$20,$20,$20,$20,$20,$20,$20,$20,$20,$20,$20,$20,$20,$20,$20,$20,$20,$20
00520  4028  20 20 20              BYTE    $20,$20,$20,$20,$20,$20,$20,$20,$20,$20,$20,$20,$20,$20,$20,$20,$20,$20,$20,$20,$20,$20,$20,$20,$20,$20,$20,$20,$20,$20,$20,$20,$20,$20,$20,$20,$20,$20,$20,$20
00521  4050  20 20 20              BYTE    $20,$20,$20,$20,$20,$20,$20,$66,$66,$20,$20,$20,$20,$20,$20,$20,$20,$20,$20,$20,$20,$20,$20,$20,$66,$66,$66,$20,$20,$20,$20,$20,$20,$20,$20,$20,$20,$20,$20,$20
00522  4078  20 20 20              BYTE    $20,$20,$20,$20,$20,$20,$66,$66,$66,$66,$66,$20,$20,$20,$20,$20,$20,$20,$20,$20,$20,$20,$20,$66,$66,$66,$66,$66,$20,$20,$20,$20,$20,$20,$20,$20,$20,$20,$20,$20
00523  40A0  20 20 20              BYTE    $20,$20,$20,$20,$20,$66,$66,$66,$66,$66,$66,$66,$20,$20,$20,$20,$20,$20,$20,$20,$20,$20,$20,$20,$66,$66,$66,$66,$20,$20,$20,$20,$20,$20,$20,$20,$20,$20,$20,$20
00524  40C8  20 20 20              BYTE    $20,$20,$20,$20,$20,$20,$66,$66,$66,$66,$66,$66,$66,$20,$20,$20,$20,$20,$20,$20,$20,$20,$20,$20,$20,$66,$66,$20,$20,$20,$20,$20,$20,$20,$20,$20,$20,$20,$20,$20
00525  40F0  20 20 20              BYTE    $20,$20,$20,$20,$20,$20,$20,$20,$20,$20,$20,$20,$20,$20,$20,$20,$20,$20,$20,$20,$20,$20,$20,$20,$20,$20,$20,$20,$20,$20,$20,$20,$20,$66,$66,$66,$20,$20,$20,$20
00526  4118  20 20 20              BYTE    $20,$20,$20,$20,$20,$20,$20,$20,$20,$20,$20,$20,$20,$20,$20,$20,$20,$20,$20,$20,$20,$20,$20,$20,$20,$20,$20,$20,$20,$20,$20,$66,$66,$66,$66,$66,$66,$20,$20,$20
00527  4140  20 20 20              BYTE    $20,$20,$20,$20,$20,$20,$20,$20,$20,$20,$20,$20,$20,$20,$20,$20,$20,$20,$20,$20,$20,$20,$20,$20,$20,$20,$20,$20,$20,$20,$66,$66,$66,$66,$66,$66,$20,$20,$20,$20
00528  4168  20 20 20              BYTE    $20,$20,$20,$20,$20,$20,$20,$20,$20,$20,$20,$20,$EC,$E2,$E2,$E2,$E2,$E2,$E2,$E2,$E2,$E2,$E2,$E2,$FB,$20,$20,$20,$20,$20,$20,$20,$20,$20,$20,$20,$20,$20,$20,$20
00529  4190  20 20 20              BYTE    $20,$20,$20,$20,$20,$20,$20,$20,$20,$20,$20,$20,$20,$20,$20,$66,$66,$66,$66,$66,$66,$20,$20,$20,$20,$20,$20,$20,$20,$20,$20,$20,$20,$20,$20,$20,$20,$20,$20,$20
00530  41B8  20 20 20              BYTE    $20,$20,$20,$20,$20,$20,$20,$20,$20,$20,$20,$20,$20,$20,$66,$66,$66,$66,$66,$66,$20,$20,$20,$20,$20,$20,$20,$20,$20,$EC,$E2,$E2,$E2,$E2,$E2,$E2,$E2,$FB,$20,$20
00531  41E0  20 20 66              BYTE    $20,$20,$66,$20,$20,$20,$20,$20,$20,$20,$20,$20,$20,$20,$20,$20,$66,$66,$66,$20,$20,$20,$20,$20,$20,$20,$20,$20,$20,$20,$20,$20,$6B,$73,$20,$20,$20,$20,$20,$20
00532  4208  20 20 66              BYTE    $20,$20,$66,$EC,$E2,$E2,$E2,$E2,$E2,$E2,$FB,$20,$20,$20,$20,$20,$20,$20,$20,$20,$20,$20,$20,$20,$20,$20,$20,$20,$20,$66,$20,$20,$6B,$73,$20,$20,$20,$20,$20,$20
00533  4230  20 66 66              BYTE    $20,$66,$66,$20,$20,$20,$20,$20,$20,$20,$20,$20,$20,$20,$20,$20,$20,$20,$20,$20,$20,$20,$20,$20,$20,$20,$20,$20,$20,$66,$20,$20,$6B,$73,$20,$20,$20,$20,$20,$20
00534  4258  20 66 66              BYTE    $20,$66,$66,$20,$20,$20,$20,$20,$20,$20,$20,$20,$20,$20,$20,$20,$20,$20,$20,$20,$20,$20,$20,$20,$20,$20,$20,$20,$66,$66,$20,$20,$6B,$73,$20,$20,$20,$20,$20,$20
00535  4280  20 66 66              BYTE    $20,$66,$66,$20,$20,$20,$20,$20,$20,$20,$20,$20,$20,$20,$20,$20,$20,$20,$20,$20,$20,$20,$20,$20,$20,$20,$20,$20,$66,$66,$20,$20,$6B,$73,$20,$20,$20,$20,$20,$20
00536  42A8  20 66 66              BYTE    $20,$66,$66,$66,$20,$20,$20,$20,$20,$20,$20,$E0,$E0,$E0,$E0,$E0,$E0,$E0,$E0,$E0,$E0,$E0,$20,$20,$20,$20,$20,$20,$66,$66,$66,$20,$6B,$73,$20,$20,$20,$20,$20,$20
00537  42D0  66 66 66              BYTE    $66,$66,$66,$66,$20,$20,$20,$20,$20,$20,$20,$20,$20,$20,$20,$20,$20,$20,$20,$20,$20,$20,$20,$20,$20,$20,$20,$20,$66,$66,$66,$20,$6B,$73,$20,$20,$20,$20,$20,$20
00538  42F8  66 66 66              BYTE    $66,$66,$66,$66,$66,$60,$60,$60,$60,$60,$20,$20,$20,$20,$20,$20,$20,$20,$20,$20,$20,$20,$20,$20,$EC,$E2,$E2,$E2,$E2,$E2,$E2,$E2,$E2,$E2,$FB,$20,$20,$20,$20,$20
00539  4320  66 66 66              BYTE    $66,$66,$66,$66,$66,$20,$20,$20,$20,$20,$60,$60,$60,$60,$60,$60,$20,$20,$20,$20,$60,$60,$20,$20,$20,$20,$20,$66,$66,$66,$66,$20,$20,$20,$20,$20,$20,$20,$20,$20
00540  4348  66 66 66              BYTE    $66,$66,$66,$66,$66,$20,$20,$20,$20,$20,$20,$20,$20,$20,$20,$20,$20,$20,$20,$20,$20,$20,$60,$60,$60,$60,$60,$66,$66,$66,$66,$66,$60,$20,$20,$20,$20,$20,$20,$20
00541  4370  66 66 66              BYTE    $66,$66,$66,$66,$66,$20,$20,$20,$20,$20,$20,$20,$20,$20,$20,$20,$20,$20,$20,$20,$20,$20,$20,$20,$20,$20,$20,$66,$66,$66,$66,$66,$20,$20,$20,$20,$20,$20,$20,$20
00542  4398  E8 E8 E8              BYTE    $E8,$E8,$E8,$E8,$E8,$E8,$E8,$E8,$E8,$E8,$E8,$E8,$E8,$E8,$E8,$E8,$E8,$E8,$E8,$E8,$E8,$E8,$E8,$E8,$E8,$E8,$E8,$E8,$E8,$E8,$E8,$E8,$E8,$E8,$E8,$E8,$E8,$E8,$E8,$E8
00543  43C0  E6 E6 E6              BYTE    $E6,$E6,$E6,$E6,$E6,$E6,$E6,$E6,$E6,$E6,$E6,$E6,$E6,$E6,$E6,$E6,$E6,$E6,$E6,$E6,$E6,$E6,$E6,$E6,$E6,$E6,$E6,$E6,$E6,$E6,$E6,$E6,$E6,$E6,$E6,$E6,$E6,$E6,$E6,$E6
00544  43E8             
00545  43E8  04 04 04              BYTE    $04,$04,$04,$04,$04,$04,$04,$04,$04,$04,$04,$04,$04,$04,$04,$04,$04,$04,$04,$04,$04,$04,$04,$04,$04,$04,$04,$04,$04,$04,$04,$04,$04,$04,$04,$04,$04,$04,$04,$04
00546  4410  04 04 04              BYTE    $04,$04,$04,$04,$04,$04,$04,$04,$04,$04,$04,$04,$04,$04,$04,$04,$04,$04,$04,$04,$04,$04,$04,$04,$04,$04,$04,$04,$04,$04,$04,$04,$04,$04,$04,$04,$04,$04,$04,$04
00547  4438  04 04 04              BYTE    $04,$04,$04,$04,$04,$04,$04,$0F,$0F,$0F,$04,$04,$04,$04,$04,$04,$04,$04,$04,$04,$04,$04,$04,$04,$0F,$0F,$0F,$04,$04,$04,$04,$04,$04,$04,$04,$04,$04,$04,$04,$04
00548  4460  04 04 04              BYTE    $04,$04,$04,$04,$04,$04,$0F,$0F,$0F,$0F,$0F,$04,$04,$04,$04,$04,$04,$04,$04,$04,$04,$04,$04,$0F,$0F,$0F,$0F,$0F,$04,$04,$04,$04,$04,$04,$04,$04,$04,$04,$04,$04
00549  4488  04 04 04              BYTE    $04,$04,$04,$04,$04,$0F,$0F,$0F,$0F,$0F,$0F,$0F,$04,$04,$04,$04,$04,$04,$04,$04,$04,$04,$04,$04,$0F,$0F,$0F,$0F,$04,$04,$04,$04,$04,$04,$04,$04,$04,$04,$04,$04
00550  44B0  00 00 00              BYTE    $00,$00,$00,$00,$00,$00,$0F,$0F,$0F,$0F,$0F,$0F,$0F,$04,$04,$04,$04,$04,$04,$04,$04,$04,$04,$04,$00,$0F,$0F,$04,$04,$04,$04,$04,$04,$00,$00,$00,$00,$00,$00,$00
00551  44D8  00 00 00              BYTE    $00,$00,$00,$00,$00,$00,$00,$00,$00,$00,$00,$04,$04,$04,$04,$04,$04,$04,$04,$04,$04,$04,$04,$04,$00,$00,$04,$04,$04,$04,$04,$04,$04,$0F,$0F,$0F,$0F,$0F,$0F,$00
00552  4500  00 00 00              BYTE    $00,$00,$00,$00,$00,$00,$00,$00,$00,$00,$00,$04,$04,$04,$04,$04,$04,$04,$04,$04,$04,$04,$04,$04,$00,$00,$00,$00,$00,$00,$00,$0F,$0F,$0F,$0F,$0F,$0F,$00,$0F,$00
00553  4528  00 00 00              BYTE    $00,$00,$00,$04,$0A,$0A,$0A,$0A,$0A,$0A,$0A,$0A,$04,$00,$00,$00,$07,$07,$07,$00,$00,$00,$00,$00,$00,$00,$00,$00,$00,$00,$0F,$0F,$0F,$0F,$0F,$0F,$00,$00,$00,$00
00554  4550  00 00 00              BYTE    $00,$00,$00,$00,$00,$00,$00,$00,$00,$08,$08,$00,$07,$07,$07,$07,$07,$07,$07,$07,$07,$07,$07,$07,$07,$00,$00,$00,$00,$00,$00,$00,$00,$00,$00,$00,$00,$00,$00,$00
00555  4578  00 00 00              BYTE    $00,$00,$00,$00,$00,$02,$00,$00,$00,$08,$08,$00,$00,$00,$00,$0F,$0F,$0F,$0F,$0F,$0F,$00,$00,$00,$00,$00,$00,$00,$00,$00,$0B,$0B,$0B,$0B,$0B,$0B,$0B,$00,$00,$00
00556  45A0  00 00 00              BYTE    $00,$00,$00,$00,$00,$00,$00,$00,$00,$08,$08,$00,$00,$00,$0F,$0F,$0F,$0F,$0F,$0F,$00,$00,$00,$00,$00,$00,$01,$01,$01,$07,$07,$07,$07,$07,$07,$07,$07,$07,$00,$00
00557  45C8  00 00 0B              BYTE    $00,$00,$0B,$00,$0B,$0B,$0B,$0B,$0B,$0B,$08,$00,$00,$00,$00,$00,$0F,$0F,$0F,$0F,$00,$00,$00,$0A,$00,$00,$00,$00,$00,$00,$00,$00,$00,$00,$00,$00,$00,$00,$00,$00
00558  45F0  00 00 0B              BYTE    $00,$00,$0B,$07,$07,$07,$07,$07,$07,$07,$07,$00,$00,$00,$00,$00,$00,$00,$00,$00,$00,$00,$00,$0A,$0A,$00,$00,$00,$00,$0B,$00,$00,$00,$00,$00,$00,$00,$00,$00,$00
00559  4618  00 0B 0B              BYTE    $00,$0B,$0B,$00,$00,$00,$00,$00,$00,$08,$08,$00,$00,$00,$00,$00,$00,$00,$00,$00,$00,$00,$00,$07,$07,$07,$00,$00,$00,$0B,$00,$00,$00,$00,$00,$00,$00,$00,$00,$00
00560  4640  00 0B 0B              BYTE    $00,$0B,$0B,$0B,$00,$00,$00,$00,$00,$08,$08,$00,$00,$00,$00,$00,$00,$00,$00,$00,$00,$00,$00,$00,$00,$00,$00,$00,$0B,$0B,$00,$00,$00,$00,$00,$00,$00,$00,$00,$00
00561  4668  00 0B 0B              BYTE    $00,$0B,$0B,$0B,$00,$00,$00,$00,$04,$04,$04,$04,$0B,$0B,$0B,$0B,$0B,$0B,$0B,$0B,$0B,$00,$00,$00,$00,$00,$00,$00,$0B,$0B,$00,$00,$00,$00,$00,$00,$00,$00,$00,$00
00562  4690  00 0B 0B              BYTE    $00,$0B,$0B,$0B,$00,$00,$00,$00,$03,$01,$00,$0F,$0F,$0F,$0F,$0F,$0F,$0F,$0F,$0F,$0F,$0F,$00,$00,$00,$00,$00,$00,$0B,$0B,$0B,$00,$00,$00,$00,$00,$00,$00,$00,$00
00563  46B8  0B 0B 0B              BYTE    $0B,$0B,$0B,$0B,$00,$00,$00,$00,$00,$00,$03,$00,$00,$00,$00,$00,$00,$00,$00,$00,$00,$00,$00,$00,$00,$0B,$0B,$0B,$0B,$0B,$0B,$0B,$00,$00,$00,$00,$00,$00,$00,$00
00564  46E0  0B 0B 0B              BYTE    $0B,$0B,$0B,$0B,$0B,$09,$09,$09,$09,$09,$00,$00,$00,$03,$00,$00,$00,$00,$00,$00,$00,$00,$01,$01,$07,$07,$07,$07,$07,$07,$07,$07,$07,$07,$07,$00,$00,$00,$00,$00
00565  4708  0B 0B 0B              BYTE    $0B,$0B,$0B,$0B,$0B,$00,$00,$03,$03,$03,$09,$09,$09,$09,$09,$09,$09,$00,$00,$09,$09,$09,$00,$00,$00,$00,$0B,$0B,$0B,$0B,$0B,$0B,$00,$00,$00,$00,$00,$00,$00,$00
00566  4730  0B 0B 0B              BYTE    $0B,$0B,$0B,$0B,$0B,$03,$03,$03,$03,$03,$03,$03,$03,$03,$03,$03,$03,$00,$00,$00,$00,$00,$09,$09,$09,$09,$09,$0B,$0B,$0B,$0B,$0B,$09,$00,$00,$00,$00,$00,$00,$00
00567  4758  0B 0B 0B              BYTE    $0B,$0B,$0B,$0B,$0B,$0B,$0B,$0B,$0B,$0B,$0B,$0B,$0B,$0B,$0B,$0B,$0B,$00,$00,$0B,$0B,$0B,$0B,$0B,$0B,$0B,$0B,$0B,$0B,$0B,$0B,$0B,$0B,$0B,$0B,$0B,$0B,$0B,$0B,$0B
00568  4780  04 04 04              BYTE    $04,$04,$04,$04,$04,$04,$04,$04,$04,$04,$04,$04,$04,$04,$04,$04,$04,$04,$04,$04,$04,$04,$04,$04,$04,$04,$04,$04,$04,$04,$04,$04,$04,$04,$04,$04,$04,$04,$04,$04
00569  47A8  04 04 04              BYTE    $04,$04,$04,$04,$04,$04,$04,$04,$04,$04,$04,$04,$04,$04,$04,$04,$04,$04,$04,$04,$04,$04,$04,$04,$04,$04,$04,$04,$04,$04,$04,$04,$04,$04,$04,$04,$04,$04,$04,$04
00570  47D0             
00571  47D0             

******* 23 Label(s) *******
~~~loop{00000} = $104A 
~~~loop{00001} = $105E 
~~~loop{00002} = $1072 
~~~loop{00003} = $1086 
~~~loop{00004} = $109A 
animations = $1270 
animCounter = $127D 
animFrame = $127E 
animOffset = $127C 
checkPos = $10E1 
collCheck = $10E3 
collPos = $10DF 
drawRoom = $1048 
init = $1000 
initPlayer = $1120 
irq = $103F 
jumpPos = $127F 
playerAnim = $1186 
playerGravity = $1237 
playerMove = $11AF 
rowTable = $10AD 
sineTable = $1280 
updatePlayer = $113D 

******* 2 Unused label(s) *******
@checkFall
@checkIdle
@checkJump
@checkLow
@checkLower
@chkOverflow
@end
@end
@end
@end
@falling
@flipUpper
@incCount
@isUpper
@moveLeft
@moveRight
@moveUp
@onGround
@storeChar
@updateFrame
@updateY
init
sineTable

******* 16 Variable(s) *******
animIdle  = $0080
animLen  = $0003
animSpeed  = $0004
idleLeft  = $0003
idleRight  = $0000
joyDown  = $0002
joyFire  = $0010
joyLeft  = $0004
joyRight  = $0008
joyUp  = $0001
sineTableHalf  = $0016
sineTableLen  = $002D
tgt_c64  = $0001
walkLeft  = $0009
walkRight  = $0006
zeroPtr  = $00FB
******* -16 Unused variables(s) *******
idleLeft
idleRight
joyDown
joyFire
tgt_c64

