00001  0000             
00002  0001             *=$1000
00003  1000  20 48 10   INIT       JSR DRAWROOM
00004  1003  A9 09                 LDA #$09                ;SET UP SPRITE MULTICOLOR
00005  1005  8D 25 D0              STA $D025
00006  1008  A9 0A                 LDA #$0A
00007  100A  8D 26 D0              STA $D026
00008  100D  20 AD 10              JSR INITPLAYER
00009  1010  78                    SEI                     ;SET UP IRQ ROUTINE
00010  1011  A0 1F                 LDY #$7F/4
00011  1013  8C 0D DC              STY $DC0D
00012  1016  8C 0D DD              STY $DD0D
00013  1019  AD 0D DC              LDA $DC0D
00014  101C  AD 0D DD              LDA $DD0D
00015  101F  A9 01                 LDA #$01
00016  1021  8D 1A D0              STA $D01A
00017  1024  A9 3F                 LDA #<IRQ
00018  1026  A2 10                 LDX #>IRQ
00019  1028  8D 14 03              STA $0314
00020  102B  8E 15 03              STX $0315
00021  102E  A9 00                 LDA #$00
00022  1030  8D 12 D0              STA $D012
00023  1033  AD 11 D0              LDA $D011
00024  1036  29 7F                 AND #$7F
00025  1038  8D 11 D0              STA $D011
00026  103B  58                    CLI
00027  103C  4C 3C 10              JMP *
00028  103F             
00029  103F  CE 19 D0   IRQ        DEC $D019
00030  1042  20 CA 10              JSR UPDATEPLAYER
00031  1045  4C 81 EA              JMP $EA81
00032  1048             
00033  1048             DEFM       DRAWLINE                ;/1 = LINEOFFSET
00034  1048                        LDX #$00
00035  1048             @LOOP      LDA $4000+/1,X
00036  1048                        STA $0400+/1,X
00037  1048                        LDA $43E8+/1,X
00038  1048                        STA $D800+/1,X
00039  1048                        INX
00040  1048                        CLC
00041  1048                        CPX #$C8
00042  1048                        BNE @LOOP
00043  1048             
00044  1048             
00045  1048             
00046  1048             
00047  1048  A2 00      DRAWROOM   LDX #$00
00048  104A  BD 00 40   @LOOP      LDA $4000+0,X
00049  104D  9D 00 04              STA $0400+0,X
00050  1050  BD E8 43              LDA $43E8+0,X
00051  1053  9D 00 D8              STA $D800+0,X
00052  1056  E8                    INX
00053  1057  18                    CLC
00054  1058  E0 C8                 CPX #$C8
00055  105A  D0 EE                 BNE @LOOP
00056  105C             
00057  105C             
00058  105C  A2 00                 LDX #$00
00059  105E  BD C8 40   @LOOP      LDA $4000+200,X
00060  1061  9D C8 04              STA $0400+200,X
00061  1064  BD B0 44              LDA $43E8+200,X
00062  1067  9D C8 D8              STA $D800+200,X
00063  106A  E8                    INX
00064  106B  18                    CLC
00065  106C  E0 C8                 CPX #$C8
00066  106E  D0 EE                 BNE @LOOP
00067  1070             
00068  1070             
00069  1070  A2 00                 LDX #$00
00070  1072  BD 90 41   @LOOP      LDA $4000+400,X
00071  1075  9D 90 05              STA $0400+400,X
00072  1078  BD 78 45              LDA $43E8+400,X
00073  107B  9D 90 D9              STA $D800+400,X
00074  107E  E8                    INX
00075  107F  18                    CLC
00076  1080  E0 C8                 CPX #$C8
00077  1082  D0 EE                 BNE @LOOP
00078  1084             
00079  1084             
00080  1084  A2 00                 LDX #$00
00081  1086  BD 58 42   @LOOP      LDA $4000+600,X
00082  1089  9D 58 06              STA $0400+600,X
00083  108C  BD 40 46              LDA $43E8+600,X
00084  108F  9D 58 DA              STA $D800+600,X
00085  1092  E8                    INX
00086  1093  18                    CLC
00087  1094  E0 C8                 CPX #$C8
00088  1096  D0 EE                 BNE @LOOP
00089  1098             
00090  1098             
00091  1098  A2 00                 LDX #$00
00092  109A  BD 20 43   @LOOP      LDA $4000+800,X
00093  109D  9D 20 07              STA $0400+800,X
00094  10A0  BD 08 47              LDA $43E8+800,X
00095  10A3  9D 20 DB              STA $D800+800,X
00096  10A6  E8                    INX
00097  10A7  18                    CLC
00098  10A8  E0 C8                 CPX #$C8
00099  10AA  D0 EE                 BNE @LOOP
00100  10AC  60                    RTS
00101  10AD             JOYUP      =       #$01
00102  10AD             JOYDOWN    =       #$02
00103  10AD             JOYLEFT    =       #$04
00104  10AD             JOYRIGHT=  #$08
00105  10AD             JOYFIRE    =       #$10
00106  10AD             
00107  10AD             DEFM       CHECKJOY        ;/1 = JOY BUTTON, /2 = CHECK FAIL ROUTINE
00108  10AD                        LDA $DC00
00109  10AD                        AND #/1
00110  10AD                        CMP #/1
00111  10AD                        BEQ /2
00112  10AD             
00113  10AD  A9 80      INITPLAYER LDA #$80
00114  10AF  8D F8 07              STA $07F8               ;SET SPRITE POINTER
00115  10B2  A9 10                 LDA #$10
00116  10B4  8D 00 D0              STA $D000               ;SET SPRITE X POS
00117  10B7  A9 A0                 LDA #$A0
00118  10B9  8D 01 D0              STA $D001               ;SET SPRITE Y POS
00119  10BC  A9 01                 LDA #$01
00120  10BE  8D 15 D0              STA $D015               ;ENABLE SPRITE 0
00121  10C1  8D 1C D0              STA $D01C               ;SET MULTICOLOR SPRITE 0
00122  10C4  A9 05                 LDA #$05
00123  10C6  8D 27 D0              STA $D027               ;SET SPRITE COLOR
00124  10C9  60                    RTS
00125  10CA             
00126  10CA  20 F3 10   UPDATEPLAYER JSR PLAYERMOVE
00127  10CD  AE E0 11              LDX JUMPPOS
00128  10D0  AD 01 D0              LDA $D001
00129  10D3  E0 00                 CPX #$00
00130  10D5  F0 1B                 BEQ @END                ;JUMPPOS == 0 => NO JUMP
00131  10D7  E0 16                 CPX #SINETABLEHALF
00132  10D9  B0 06                 BCS @FALLING
00133  10DB  FD E0 11              SBC SINETABLE-1,X       ;JUMING
00134  10DE  4C E4 10              JMP @UPDATEY
00135  10E1  7D E0 11   @FALLING   ADC SINETABLE-1,X
00136  10E4  8D 01 D0   @UPDATEY   STA $D001
00137  10E7  E0 2D                 CPX #SINETABLELEN
00138  10E9  F0 04                 BEQ @ENDJUMP
00139  10EB  E8                    INX
00140  10EC  8E E0 11              STX JUMPPOS
00141  10EF  20 65 11   @ENDJUMP   JSR PLAYERGRAVITY
00142  10F2  60         @END       RTS
00143  10F3                        
00144  10F3             
00145  10F3  AD 10 D0   PLAYERMOVE LDA $D010
00146  10F6  29 01                 AND #$01
00147  10F8  C9 01                 CMP #$01
00148  10FA  F0 1C                 BEQ @ISUPPER
00149  10FC  AD 00 D0              LDA $D000
00150  10FF  C9 FF                 CMP #$FF
00151  1101  D0 08                 BNE @CHECKLOW
00152  1103  A9 00                 LDA #$00
00153  1105  8D 00 D0              STA $D000
00154  1108  4C 31 11              JMP @FLIPUPPER
00155  110B  18         @CHECKLOW  CLC
00156  110C  C9 00                 CMP #$00
00157  110E  D0 29                 BNE @MOVERIGHT
00158  1110  A9 56                 LDA #$56
00159  1112  8D 00 D0              STA $D000
00160  1115  4C 31 11              JMP @FLIPUPPER
00161  1118  AD 00 D0   @ISUPPER   LDA $D000
00162  111B  C9 57                 CMP #$57
00163  111D  D0 08                 BNE @CHECKLOWER
00164  111F  A9 00                 LDA #$00
00165  1121  8D 00 D0              STA $D000
00166  1124  4C 31 11              JMP @FLIPUPPER
00167  1127  18         @CHECKLOWER CLC
00168  1128  C9 00                 CMP #$00
00169  112A  D0 0D                 BNE @MOVERIGHT
00170  112C  A9 FF                 LDA #$FF
00171  112E  8D 00 D0              STA $D000
00172  1131  AD 10 D0   @FLIPUPPER LDA $D010
00173  1134  49 01                 EOR #01
00174  1136  8D 10 D0              STA $D010
00175  1139             
00176  1139             
00177  1139  AD 00 DC   @MOVERIGHT LDA $DC00
00178  113C  29 08                 AND #JOYRIGHT
00179  113E  C9 08                 CMP #JOYRIGHT
00180  1140  F0 03                 BEQ @MOVELEFT
00181  1142  EE 00 D0              INC $D000
00182  1145             
00183  1145             
00184  1145  AD 00 DC   @MOVELEFT  LDA $DC00
00185  1148  29 04                 AND #JOYLEFT
00186  114A  C9 04                 CMP #JOYLEFT
00187  114C  F0 03                 BEQ @MOVEUP
00188  114E  CE 00 D0              DEC $D000
00189  1151             
00190  1151             
00191  1151  AD 00 DC   @MOVEUP    LDA $DC00
00192  1154  29 01                 AND #JOYUP
00193  1156  C9 01                 CMP #JOYUP
00194  1158  F0 0A                 BEQ @END
00195  115A  AD E0 11              LDA JUMPPOS
00196  115D  C9 00                 CMP #$00
00197  115F  D0 03                 BNE @END
00198  1161  EE E0 11              INC JUMPPOS
00199  1164  60         @END       RTS
00200  1165             
00201  1165  AD 01 D0   PLAYERGRAVITY LDA $D001
00202  1168  69 01                 ADC #$01                        ;OFFSET SOME PIXELS
00203  116A  4A                    LSR                             ;YPOS / 4 (ROWTABLE CONTAINS 16BIT POINTERS)
00204  116B  4A                    LSR
00205  116C  E9 07                 SBC #$07                        ;OFFSET FOR TOP BORDER
00206  116E  29 FE                 AND #$FE                        ;AVOID UNEVEN NUMBERS
00207  1170  A8                    TAY
00208  1171  AA                    TAX                             ;STORE IN X FOR LATER USE
00209  1172  B9 AE 11              LDA ROWTABLE,Y
00210  1175  85 FB                 STA ZEROPTR
00211  1177  B9 AF 11              LDA ROWTABLE+1,Y
00212  117A  85 FC                 STA ZEROPTR+1
00213  117C  AD 00 D0              LDA $D000
00214  117F  4A                    LSR                             ;XPOS / 8
00215  1180  4A                    LSR
00216  1181  4A                    LSR
00217  1182  E9 01                 SBC #$01                        ;CENTER OFFSET
00218  1184  A8                    TAY
00219  1185  AD 10 D0              LDA $D010
00220  1188  29 01                 AND #$01
00221  118A  C9 01                 CMP #$01                        ;IF UPPER BIT IS USED, ADD 31 TO CHARPTR
00222  118C  D0 05                 BNE @CHKOVERFLOW
00223  118E  98                    TYA
00224  118F  18                    CLC
00225  1190  69 1F                 ADC #$1F
00226  1192  A8                    TAY
00227  1193  98         @CHKOVERFLOW TYA
00228  1194  C9 28                 CMP #$28                        ;MAKE SURE THAT POSITION OVERFLOWS WITH X-POSITION
00229  1196  90 02                 BCC @CHECKCHAR
00230  1198  A0 27                 LDY #$27
00231  119A  B1 FB      @CHECKCHAR LDA (ZEROPTR),Y
00232  119C  C9 80                 CMP #$80
00233  119E  90 0D                 BCC @END
00234  11A0  8A         @ONGROUND  TXA                             ;ROWCOLLISION STORED IN X REGISTER
00235  11A1  0A                    ASL
00236  11A2  0A                    ASL
00237  11A3  69 1D                 ADC #$1D
00238  11A5  8D 01 D0              STA $D001                       ;MOVE SPRITE TO GROUND
00239  11A8  A9 00                 LDA #$00
00240  11AA  8D E0 11              STA JUMPPOS
00241  11AD  60         @END       RTS
00242  11AE             
00243  11AE             ZEROPTR    = $FB
00244  11AE  00 04 28   ROWTABLE   BYTE $0400,$0428,$0450,$0478,$04A0,$04C8,$04F0,$0518,$0540,$0568,$0590,$05B8,$05E0,$0608,$0630,$0658,$0680,$06A8,$06D0,$06F8,$0720,$0748,$0770,$0798,$0400
00245  11E0  17         JUMPPOS    BYTE $17
00246  11E1             
00247  11E1             SINETABLELEN = 45
00248  11E1             SINETABLEHALF= 22
00249  11E1  03 02 02   SINETABLE  BYTE $03,$02,$02,$02,$02,$02,$02,$02,$02,$02,$02,$02,$02,$01,$01,$01,$01,$01,$00,$00,$00,$00,$00,$00,$00,$00,$00,$00,$01,$01,$01,$01,$01,$02,$02,$02,$02,$02,$02,$02,$02,$02,$02,$02,$02,$03
00250  120F             *=$2000
00251  2000  00 00 00              BYTE 0,0,0
00252  2003  00 00 00              BYTE 0,0,0
00253  2006  00 00 00              BYTE 0,0,0
00254  2009  00 00 00              BYTE 0,0,0
00255  200C  00 54 00              BYTE 0,84,0
00256  200F  01 65 00              BYTE 1,101,0
00257  2012  05 A9 40              BYTE 5,169,64
00258  2015  06 AA 54              BYTE 6,170,84
00259  2018  05 F3 40              BYTE 5,243,64
00260  201B  07 73 40              BYTE 7,115,64
00261  201E  07 75 40              BYTE 7,117,64
00262  2021  07 FF 40              BYTE 7,255,64
00263  2024  01 55 00              BYTE 1,85,0
00264  2027  06 AA 40              BYTE 6,170,64
00265  202A  06 6A 40              BYTE 6,106,64
00266  202D  06 6A 40              BYTE 6,106,64
00267  2030  07 6A 40              BYTE 7,106,64
00268  2033  01 A9 00              BYTE 1,169,0
00269  2036  01 99 00              BYTE 1,153,0
00270  2039  01 99 00              BYTE 1,153,0
00271  203C  00 44 00              BYTE 0,68,0
00272  203F             
00273  203F             *=$4000
00274  4000  70 40 40              BYTE    $70,$40,$40,$40,$40,$40,$40,$40,$40,$40,$40,$40,$40,$40,$40,$40,$40,$40,$40,$40,$40,$40,$40,$40,$40,$40,$40,$40,$40,$40,$40,$40,$40,$40,$40,$40,$40,$40,$40,$6E
00275  4028  5D 20 20              BYTE    $5D,$20,$20,$20,$70,$40,$40,$6E,$20,$20,$20,$20,$20,$20,$20,$20,$20,$20,$20,$20,$20,$20,$20,$20,$20,$20,$20,$70,$40,$40,$40,$40,$6E,$20,$20,$20,$20,$20,$20,$5D
00276  4050  5D 20 20              BYTE    $5D,$20,$20,$20,$5D,$20,$20,$5D,$20,$20,$20,$20,$70,$40,$40,$40,$40,$40,$40,$40,$40,$6E,$20,$20,$20,$20,$20,$5D,$20,$20,$20,$20,$5D,$20,$20,$20,$20,$20,$20,$5D
00277  4078  6D 40 40              BYTE    $6D,$40,$40,$40,$5D,$40,$40,$5D,$40,$40,$40,$40,$5D,$40,$40,$40,$40,$40,$40,$40,$40,$5D,$40,$40,$40,$40,$40,$5D,$40,$40,$40,$40,$5D,$40,$40,$40,$40,$40,$40,$7D
00278  40A0  20 20 20              BYTE    $20,$20,$20,$20,$6D,$40,$40,$7D,$20,$20,$20,$20,$5D,$20,$20,$20,$20,$20,$20,$20,$20,$5D,$20,$20,$20,$20,$20,$5D,$20,$20,$20,$20,$5D,$20,$20,$20,$20,$20,$20,$20
00279  40C8  20 20 20              BYTE    $20,$20,$20,$20,$20,$20,$20,$20,$20,$20,$20,$20,$5D,$20,$20,$20,$20,$20,$20,$20,$20,$5D,$20,$20,$20,$20,$20,$5D,$20,$20,$20,$20,$5D,$20,$20,$20,$20,$20,$20,$20
00280  40F0  20 20 20              BYTE    $20,$20,$20,$20,$20,$20,$20,$20,$20,$20,$20,$20,$6D,$40,$40,$40,$40,$40,$40,$40,$40,$7D,$20,$20,$20,$20,$20,$6D,$40,$40,$40,$40,$7D,$66,$66,$66,$20,$20,$20,$20
00281  4118  20 20 20              BYTE    $20,$20,$20,$20,$20,$20,$20,$20,$20,$20,$20,$20,$20,$20,$20,$20,$20,$20,$20,$20,$20,$20,$20,$20,$20,$20,$20,$20,$20,$20,$20,$66,$66,$66,$66,$66,$66,$20,$20,$20
00282  4140  20 20 20              BYTE    $20,$20,$20,$E9,$E0,$E0,$E0,$E0,$E0,$E0,$E0,$E0,$DF,$20,$20,$20,$20,$20,$20,$20,$20,$20,$20,$20,$20,$20,$20,$20,$20,$20,$66,$66,$66,$66,$66,$66,$20,$20,$20,$20
00283  4168  20 20 20              BYTE    $20,$20,$20,$20,$20,$20,$20,$20,$20,$6B,$73,$20,$20,$20,$20,$20,$20,$66,$66,$66,$20,$20,$20,$20,$20,$20,$20,$20,$20,$20,$20,$20,$20,$20,$20,$20,$20,$20,$20,$20
00284  4190  20 20 20              BYTE    $20,$20,$20,$20,$20,$20,$20,$20,$20,$6B,$73,$20,$20,$20,$20,$66,$66,$66,$66,$66,$66,$20,$20,$20,$20,$20,$20,$20,$20,$20,$20,$20,$20,$20,$20,$20,$20,$20,$20,$20
00285  41B8  20 20 20              BYTE    $20,$20,$20,$20,$20,$20,$20,$20,$20,$6B,$73,$20,$20,$20,$66,$66,$66,$66,$66,$66,$20,$20,$20,$20,$20,$20,$20,$20,$20,$E9,$E0,$E0,$E0,$E0,$E0,$E0,$E0,$DF,$20,$20
00286  41E0  20 20 66              BYTE    $20,$20,$66,$20,$20,$20,$20,$20,$20,$6B,$73,$20,$20,$20,$20,$20,$66,$66,$66,$20,$20,$20,$20,$20,$20,$20,$20,$20,$20,$20,$20,$20,$6B,$73,$20,$20,$20,$20,$20,$20
00287  4208  20 20 66              BYTE    $20,$20,$66,$20,$20,$20,$20,$20,$20,$6B,$73,$20,$20,$20,$20,$20,$20,$20,$20,$20,$20,$20,$20,$20,$20,$20,$20,$20,$20,$66,$20,$20,$6B,$73,$20,$20,$20,$20,$20,$20
00288  4230  20 66 66              BYTE    $20,$66,$66,$20,$20,$20,$20,$20,$20,$6B,$73,$20,$20,$20,$20,$20,$20,$20,$20,$20,$20,$20,$20,$20,$20,$20,$20,$20,$20,$66,$20,$20,$6B,$73,$20,$20,$20,$20,$20,$20
00289  4258  20 66 66              BYTE    $20,$66,$66,$20,$20,$20,$20,$20,$20,$6B,$73,$20,$20,$20,$20,$20,$20,$20,$20,$20,$20,$20,$20,$20,$20,$20,$20,$20,$66,$66,$20,$20,$6B,$73,$20,$20,$20,$20,$20,$20
00290  4280  20 66 66              BYTE    $20,$66,$66,$20,$20,$20,$20,$20,$E9,$E0,$E0,$E0,$E0,$E0,$E0,$E0,$E0,$E0,$E0,$E0,$DF,$20,$20,$20,$20,$20,$20,$20,$66,$66,$20,$20,$6B,$73,$20,$20,$20,$20,$20,$20
00291  42A8  20 66 66              BYTE    $20,$66,$66,$66,$20,$20,$20,$20,$20,$20,$20,$20,$20,$20,$20,$20,$20,$6B,$73,$20,$20,$20,$20,$20,$20,$20,$20,$20,$66,$66,$66,$20,$6B,$73,$20,$20,$20,$20,$20,$20
00292  42D0  66 66 66              BYTE    $66,$66,$66,$66,$20,$20,$20,$20,$20,$20,$20,$20,$20,$20,$20,$20,$20,$6B,$73,$20,$20,$20,$20,$20,$20,$20,$20,$20,$66,$66,$66,$20,$6B,$73,$20,$20,$20,$20,$20,$20
00293  42F8  66 66 66              BYTE    $66,$66,$66,$66,$66,$60,$60,$60,$60,$60,$20,$20,$20,$20,$20,$20,$20,$6B,$73,$20,$20,$20,$20,$20,$E9,$E0,$E0,$E0,$E0,$E0,$E0,$E0,$E0,$E0,$DF,$20,$20,$20,$20,$20
00294  4320  66 66 66              BYTE    $66,$66,$66,$66,$66,$20,$20,$20,$20,$20,$60,$60,$60,$60,$60,$60,$60,$6B,$73,$60,$60,$60,$20,$20,$20,$20,$20,$66,$66,$66,$66,$20,$20,$20,$20,$20,$20,$20,$20,$20
00295  4348  66 66 66              BYTE    $66,$66,$66,$66,$66,$20,$20,$20,$20,$20,$20,$20,$20,$20,$20,$20,$20,$6B,$73,$20,$20,$20,$60,$60,$60,$60,$60,$66,$66,$66,$66,$66,$60,$20,$20,$20,$20,$20,$20,$20
00296  4370  66 66 66              BYTE    $66,$66,$66,$66,$66,$68,$68,$68,$68,$68,$68,$68,$68,$68,$68,$68,$68,$6B,$73,$68,$68,$68,$68,$68,$68,$68,$68,$66,$66,$66,$66,$66,$68,$68,$68,$68,$68,$68,$68,$68
00297  4398  E0 E0 E0              BYTE    $E0,$E0,$E0,$E0,$E0,$E0,$E0,$E0,$E0,$E0,$E0,$E0,$E0,$E0,$E0,$E0,$E0,$E0,$E0,$E0,$E0,$E0,$E0,$E0,$E0,$E0,$E0,$E0,$E0,$E0,$E0,$E0,$E0,$E0,$E0,$E0,$E0,$E0,$E0,$E0
00298  43C0  E0 E0 E0              BYTE    $E0,$E0,$E0,$E0,$E0,$E0,$E0,$E0,$E0,$E0,$E0,$E0,$E0,$E0,$E0,$E0,$E0,$E0,$E0,$E0,$E0,$E0,$E0,$E0,$E0,$E0,$E0,$E0,$E0,$E0,$E0,$E0,$E0,$E0,$E0,$E0,$E0,$E0,$E0,$E0
00299  43E8             
00300  43E8  02 02 02              BYTE    $02,$02,$02,$02,$02,$02,$02,$02,$02,$02,$02,$02,$02,$02,$02,$02,$02,$02,$02,$02,$02,$02,$02,$02,$02,$02,$02,$02,$02,$02,$02,$02,$02,$02,$02,$02,$02,$02,$02,$02
00301  4410  02 00 00              BYTE    $02,$00,$00,$00,$02,$02,$02,$02,$00,$00,$00,$00,$00,$00,$00,$00,$00,$00,$00,$00,$00,$00,$00,$00,$00,$00,$00,$02,$02,$02,$02,$02,$02,$00,$00,$00,$00,$00,$00,$02
00302  4438  02 00 00              BYTE    $02,$00,$00,$00,$02,$00,$00,$02,$00,$00,$00,$00,$02,$02,$02,$02,$02,$02,$02,$02,$02,$02,$00,$00,$00,$00,$00,$02,$00,$00,$00,$00,$02,$00,$00,$00,$00,$00,$00,$02
00303  4460  02 02 02              BYTE    $02,$02,$02,$02,$02,$02,$02,$02,$02,$02,$02,$02,$02,$02,$02,$02,$02,$02,$02,$02,$02,$02,$02,$02,$02,$02,$02,$02,$02,$02,$02,$02,$02,$02,$02,$02,$02,$02,$02,$02
00304  4488  00 00 00              BYTE    $00,$00,$00,$00,$02,$02,$02,$02,$00,$00,$00,$00,$02,$00,$00,$00,$00,$00,$00,$00,$00,$02,$00,$00,$00,$00,$00,$02,$00,$00,$00,$00,$02,$00,$00,$00,$00,$00,$00,$00
00305  44B0  00 00 00              BYTE    $00,$00,$00,$00,$00,$00,$00,$00,$00,$00,$00,$00,$02,$00,$00,$00,$00,$00,$00,$00,$00,$02,$00,$00,$00,$00,$00,$02,$00,$00,$00,$00,$02,$00,$00,$00,$00,$00,$00,$00
00306  44D8  00 00 00              BYTE    $00,$00,$00,$00,$00,$00,$00,$00,$00,$00,$00,$00,$02,$02,$02,$02,$02,$02,$02,$02,$02,$02,$00,$00,$00,$00,$00,$02,$02,$02,$02,$02,$02,$0F,$0F,$0F,$0F,$0F,$0F,$00
00307  4500  00 00 00              BYTE    $00,$00,$00,$00,$00,$00,$00,$00,$00,$00,$00,$00,$00,$00,$00,$00,$00,$00,$00,$00,$00,$00,$00,$00,$00,$00,$00,$00,$00,$00,$00,$0F,$0F,$0F,$0F,$0F,$0F,$00,$0F,$00
00308  4528  00 00 00              BYTE    $00,$00,$00,$04,$04,$04,$04,$04,$04,$04,$04,$04,$04,$00,$00,$00,$00,$00,$00,$00,$00,$00,$00,$00,$00,$00,$00,$00,$00,$00,$0F,$0F,$0F,$0F,$0F,$0F,$00,$00,$00,$00
00309  4550  00 00 00              BYTE    $00,$00,$00,$00,$00,$00,$00,$00,$00,$08,$08,$00,$00,$00,$00,$00,$00,$0F,$0F,$0F,$00,$00,$00,$00,$00,$00,$00,$00,$00,$00,$00,$00,$00,$00,$00,$00,$00,$00,$00,$00
00310  4578  00 00 00              BYTE    $00,$00,$00,$00,$00,$02,$00,$00,$00,$08,$08,$00,$00,$00,$00,$0F,$0F,$0F,$0F,$0F,$0F,$00,$00,$00,$00,$00,$00,$00,$00,$00,$00,$00,$00,$00,$00,$00,$00,$00,$00,$00
00311  45A0  00 00 00              BYTE    $00,$00,$00,$00,$00,$00,$00,$00,$00,$08,$08,$00,$00,$00,$0F,$0F,$0F,$0F,$0F,$0F,$00,$00,$00,$00,$00,$00,$01,$01,$01,$04,$04,$04,$04,$04,$04,$04,$04,$04,$00,$00
00312  45C8  00 00 05              BYTE    $00,$00,$05,$00,$00,$00,$00,$00,$00,$08,$08,$00,$00,$00,$00,$00,$0F,$0F,$0F,$0F,$00,$00,$00,$00,$00,$00,$00,$00,$00,$00,$00,$00,$08,$08,$00,$00,$00,$00,$00,$00
00313  45F0  00 00 05              BYTE    $00,$00,$05,$00,$00,$00,$00,$00,$00,$08,$08,$00,$00,$00,$00,$00,$00,$00,$00,$00,$00,$00,$00,$00,$00,$00,$00,$00,$00,$05,$00,$00,$08,$08,$00,$00,$00,$00,$00,$00
00314  4618  00 05 05              BYTE    $00,$05,$05,$00,$00,$00,$00,$00,$00,$08,$08,$00,$00,$00,$00,$00,$00,$00,$00,$00,$00,$00,$00,$00,$00,$00,$00,$00,$00,$05,$00,$00,$08,$08,$00,$00,$00,$00,$00,$00
00315  4640  00 05 05              BYTE    $00,$05,$05,$00,$00,$00,$00,$00,$00,$08,$08,$00,$00,$00,$00,$00,$00,$00,$00,$00,$00,$00,$00,$00,$00,$00,$00,$00,$05,$05,$00,$00,$08,$08,$00,$00,$00,$00,$00,$00
00316  4668  00 05 05              BYTE    $00,$05,$05,$00,$00,$00,$00,$00,$04,$04,$04,$04,$04,$04,$04,$04,$04,$04,$04,$04,$04,$00,$00,$00,$00,$00,$00,$00,$05,$05,$00,$00,$08,$08,$00,$00,$00,$00,$00,$00
00317  4690  00 05 05              BYTE    $00,$05,$05,$05,$00,$00,$00,$00,$03,$01,$00,$00,$00,$00,$00,$00,$00,$08,$08,$00,$01,$00,$00,$00,$00,$00,$00,$00,$05,$05,$05,$00,$08,$08,$00,$00,$00,$00,$00,$00
00318  46B8  05 05 05              BYTE    $05,$05,$05,$05,$00,$00,$00,$00,$00,$00,$03,$00,$00,$00,$00,$00,$00,$08,$08,$00,$00,$00,$00,$00,$00,$00,$00,$00,$05,$05,$05,$00,$08,$08,$00,$00,$00,$00,$00,$00
00319  46E0  05 05 05              BYTE    $05,$05,$05,$05,$05,$09,$09,$09,$09,$09,$00,$00,$00,$03,$00,$00,$00,$08,$08,$00,$00,$00,$01,$01,$04,$04,$04,$04,$04,$04,$04,$04,$04,$04,$04,$00,$00,$00,$00,$00
00320  4708  05 05 05              BYTE    $05,$05,$05,$05,$05,$00,$00,$03,$03,$03,$09,$09,$09,$09,$09,$09,$09,$08,$08,$09,$09,$09,$00,$00,$00,$00,$00,$05,$05,$05,$05,$00,$00,$00,$00,$00,$00,$00,$00,$00
00321  4730  05 05 05              BYTE    $05,$05,$05,$05,$05,$03,$03,$03,$03,$03,$03,$03,$03,$03,$03,$03,$03,$08,$08,$00,$00,$00,$09,$09,$09,$09,$09,$05,$05,$05,$05,$05,$09,$00,$00,$00,$00,$00,$00,$00
00322  4758  05 05 05              BYTE    $05,$05,$05,$05,$05,$0D,$0D,$0D,$0D,$0D,$0D,$0D,$0D,$0D,$0D,$0D,$0D,$08,$08,$0D,$0D,$0D,$0D,$0D,$0D,$0D,$0D,$05,$05,$05,$05,$05,$0D,$0D,$0D,$0D,$0D,$0D,$0D,$0D
00323  4780  09 09 09              BYTE    $09,$09,$09,$09,$09,$09,$09,$09,$09,$09,$09,$09,$09,$09,$09,$09,$09,$09,$09,$09,$09,$09,$09,$09,$09,$09,$09,$09,$09,$09,$09,$09,$09,$09,$09,$09,$09,$09,$09,$09
00324  47A8  09 09 09              BYTE    $09,$09,$09,$09,$09,$09,$09,$09,$09,$09,$09,$09,$09,$09,$09,$09,$09,$09,$09,$09,$09,$09,$09,$09,$09,$09,$09,$09,$09,$09,$09,$09,$09,$09,$09,$09,$09,$09,$09,$09
00325  47D0             

******* 15 Label(s) *******
~~~loop{00000} = $104A 
~~~loop{00001} = $105E 
~~~loop{00002} = $1072 
~~~loop{00003} = $1086 
~~~loop{00004} = $109A 
drawRoom = $1048 
init = $1000 
initPlayer = $10AD 
irq = $103F 
jumpPos = $11E0 
playerGravity = $1165 
playerMove = $10F3 
rowTable = $11AE 
sineTable = $11E1 
updatePlayer = $10CA 

******* 2 Unused label(s) *******
@checkChar
@checkLow
@checkLower
@chkOverflow
@end
@end
@end
@endJump
@falling
@flipUpper
@isUpper
@moveLeft
@moveRight
@moveUp
@onGround
@updateY
init
sineTable

******* 9 Variable(s) *******
joyDown  = $0002
joyFire  = $0010
joyLeft  = $0004
joyRight  = $0008
joyUp  = $0001
sineTableHalf  = $0016
sineTableLen  = $002D
tgt_c64  = $0001
zeroPtr  = $00FB
******* -13 Unused variables(s) *******
joyDown
joyFire
tgt_c64

